target datalayout = "e-m:e-p270:32:32-p271:32:32-p272:64:64-i64:64-i128:128-f80:128-n8:16:32:64-S128"
target triple = "x86_64-pc-linux-gnu"

%struct.H264SliceContext = type { ptr, %struct.GetBitContext, ptr, i32, i32, i32, i32, i32, [2 x i32], i32, i32, i32, i32, i32, %struct.H264PredWeightTable, i32, i32, i32, i32, [40 x i8], ptr, i32, i32, i32, [2 x i32], i32, i32, i32, [2 x i32], ptr, i32, i32, i32, i32, i32, i64, i64, i64, i64, i32, i32, i32, i32, i32, i32, i32, i32, i32, i32, i32, i32, i32, i32, i32, i32, i32, i32, i32, i32, [32 x i32], [2 x [32 x i32]], [2 x [48 x i32]], [2 x [2 x [48 x i32]]], [2 x i32], i32, [2 x [48 x %struct.H264Ref]], [2 x [32 x %struct.anon]], [2 x i32], i32, ptr, ptr, ptr, [2 x ptr], i32, i32, [2 x i32], [120 x i8], [8 x i8], [2 x [40 x [2 x i16]]], [2 x [40 x i8]], [2 x [40 x [2 x i8]]], [40 x i8], [4 x i16], [1536 x i16], [3 x [32 x i16]], [512 x i16], [2 x ptr], %struct.CABACContext, [1024 x i8], i32, [67 x %struct.MMCO], i32, i32, i32, i32, i32, i32, [2 x i32], i32, i32 }
%struct.GetBitContext = type { ptr, ptr, i32, i32, i32 }
%struct.H264PredWeightTable = type { i32, i32, i32, i32, [2 x i32], [2 x i32], [48 x [2 x [2 x i32]]], [48 x [2 x [2 x [2 x i32]]]], [48 x [48 x [2 x i32]]] }
%struct.H264Ref = type { [3 x ptr], [3 x i32], i32, i32, i32, ptr }
%struct.anon = type { i8, i32 }
%struct.CABACContext = type { i32, i32, ptr, ptr, ptr }
%struct.MMCO = type { i32, i32, i32 }
%struct.H264Context = type { ptr, ptr, %struct.VideoDSPContext, %struct.H264DSPContext, %struct.H264ChromaContext, %struct.H264QpelContext, %struct.H274FilmGrainDatabase, [36 x %struct.H264Picture], ptr, %struct.H264Picture, %struct.H264Picture, ptr, i32, i32, %struct.H2645Packet, i32, i32, i32, i32, i32, i32, i32, i32, i32, i32, i32, i32, i32, i32, i32, i32, i32, ptr, %struct.H264PredContext, ptr, [96 x i32], ptr, ptr, i32, ptr, i32, i32, i32, ptr, ptr, ptr, [2 x ptr], ptr, [16 x i8], [16 x i8], [64 x i8], [64 x i8], [16 x i8], [64 x i8], [64 x i8], [16 x i8], [64 x i8], [64 x i8], [16 x i8], [64 x i8], [64 x i8], i32, i32, i32, i32, i32, i32, i32, i32, i32, i32, i32, i32, %struct.H264ParamSets, ptr, %struct.H264POCContext, [2 x %struct.H264Ref], [32 x ptr], [32 x ptr], [18 x ptr], [16 x i32], ptr, i32, i32, [67 x %struct.MMCO], i32, i32, i32, i32, i32, i32, i32, i32, i32, i32, i32, i32, i32, i32, i32, [32 x i16], i32, i32, i32, %struct.ERContext, ptr, %struct.H264SEIContext, ptr, ptr, ptr, ptr, ptr, [32 x [2 x [64 x i32]]], i32, i32, i32 }
%struct.VideoDSPContext = type { ptr, ptr }
%struct.H264DSPContext = type { [4 x ptr], [4 x ptr], ptr, ptr, ptr, ptr, ptr, ptr, ptr, ptr, ptr, ptr, ptr, ptr, ptr, ptr, ptr, ptr, ptr, ptr, ptr, ptr, ptr, ptr, ptr, ptr, ptr, ptr }
%struct.H264ChromaContext = type { [4 x ptr], [4 x ptr] }
%struct.H264QpelContext = type { [4 x [16 x ptr]], [4 x [16 x ptr]] }
%struct.H274FilmGrainDatabase = type { [13 x [13 x [64 x [64 x i8]]]], [13 x i16], [64 x [64 x i16]] }
%struct.H264Picture = type { ptr, %struct.ThreadFrame, ptr, ptr, ptr, [2 x ptr], [2 x ptr], ptr, ptr, ptr, [2 x ptr], [2 x i32], i32, i32, i32, i32, i32, [2 x [2 x [32 x i32]]], [2 x [2 x i32]], i32, i32, i32, i32, i32, i32, i32, ptr, i32, i32, i32, ptr, i32 }
%struct.ThreadFrame = type { ptr, [2 x ptr], ptr }
%struct.H2645Packet = type { ptr, %struct.H2645RBSP, i32, i32, i32 }
%struct.H2645RBSP = type { ptr, ptr, i32, i32 }
%struct.H264PredContext = type { [15 x ptr], [12 x ptr], [11 x ptr], [9 x ptr], [2 x ptr], [2 x ptr], [2 x ptr], [3 x ptr], [3 x ptr] }
%struct.H264ParamSets = type { [32 x ptr], [256 x ptr], ptr, ptr, [2 x i32] }
%struct.H264POCContext = type { i32, i32, i32, [2 x i32], i32, i32, i32, i32, i32, i32 }
%struct.ERContext = type { ptr, ptr, i32, ptr, i32, i32, i32, i64, i64, i32, i32, ptr, ptr, [3 x ptr], ptr, ptr, [2 x [4 x [2 x i32]]], %struct.ERPicture, %struct.ERPicture, %struct.ERPicture, [2 x ptr], [2 x ptr], i16, i16, i32, i32, ptr, ptr }
%struct.ERPicture = type { ptr, ptr, ptr, [2 x ptr], [2 x ptr], ptr, i32 }
%struct.H264SEIContext = type { %struct.H2645SEI, %struct.H264SEIPictureTiming, %struct.H264SEIRecoveryPoint, %struct.H264SEIBufferingPeriod, %struct.H264SEIGreenMetaData }
%struct.H2645SEI = type { %struct.H2645SEIA53Caption, %struct.H2645SEIAFD, %struct.HEVCSEIDynamicHDRPlus, %struct.HEVCSEIDynamicHDRVivid, %struct.HEVCSEILCEVC, %struct.H2645SEIUnregistered, %struct.H2645SEIFramePacking, %struct.H2645SEIDisplayOrientation, %struct.H2645SEIAlternativeTransfer, %struct.H2645SEIAmbientViewingEnvironment, %struct.H2645SEIMasteringDisplay, %struct.H2645SEIContentLight, %struct.AVFilmGrainAFGS1Params, ptr }
%struct.H2645SEIA53Caption = type { ptr }
%struct.H2645SEIAFD = type { i32, i8 }
%struct.HEVCSEIDynamicHDRPlus = type { ptr }
%struct.HEVCSEIDynamicHDRVivid = type { ptr }
%struct.HEVCSEILCEVC = type { ptr }
%struct.H2645SEIUnregistered = type { ptr, i32, i32 }
%struct.H2645SEIFramePacking = type { i32, i32, i32, i32, i32, i32, i32, i32 }
%struct.H2645SEIDisplayOrientation = type { i32, i32, i32, i32 }
%struct.H2645SEIAlternativeTransfer = type { i32, i32 }
%struct.H2645SEIAmbientViewingEnvironment = type { i32, i32, i16, i16 }
%struct.H2645SEIMasteringDisplay = type { i32, [3 x [2 x i16]], [2 x i16], i32, i32 }
%struct.H2645SEIContentLight = type { i32, i16, i16 }
%struct.AVFilmGrainAFGS1Params = type { i32, [8 x ptr] }
%struct.H264SEIPictureTiming = type { [40 x i8], i32, i32, i32, i32, i32, i32, [3 x %struct.H264SEITimeCode], i32 }
%struct.H264SEITimeCode = type { i32, i32, i32, i32, i32, i32 }
%struct.H264SEIRecoveryPoint = type { i32 }
%struct.H264SEIBufferingPeriod = type { i32, [32 x i32] }
%struct.H264SEIGreenMetaData = type { i8, i8, i16, i16, i8, i8, i8, i8, i8, i16 }

; Function Attrs: nounwind uwtable
define internal i32 @decode_cabac_mb_skip(ptr noundef %0, ptr noundef %1, i32 noundef %2, i32 noundef %3) #0 {
  %5 = alloca ptr, align 8
  %6 = alloca ptr, align 8
  %7 = alloca i32, align 4
  %8 = alloca i32, align 4
  %9 = alloca i32, align 4
  %10 = alloca i32, align 4
  %11 = alloca i32, align 4
  %12 = alloca i32, align 4
  %13 = alloca i32, align 4
  store ptr %0, ptr %5, align 8, !tbaa !4
  store ptr %1, ptr %6, align 8, !tbaa !9
  store i32 %2, ptr %7, align 4, !tbaa !77
  store i32 %3, ptr %8, align 4, !tbaa !77
  call void @llvm.lifetime.start.p0(i64 4, ptr %9) #9
  call void @llvm.lifetime.start.p0(i64 4, ptr %10) #9
  call void @llvm.lifetime.start.p0(i64 4, ptr %11) #9
  store i32 0, ptr %11, align 4, !tbaa !77
  %14 = load ptr, ptr %5, align 8, !tbaa !4
  %15 = getelementptr inbounds nuw %struct.H264Context, ptr %14, i32 0, i32 40
  %16 = load i32, ptr %15, align 8, !tbaa !94
  %17 = icmp ne i32 %16, 0
  br i1 %17, label %18, label %124

18:                                               ; preds = %4
  call void @llvm.lifetime.start.p0(i64 4, ptr %12) #9
  %19 = load i32, ptr %7, align 4, !tbaa !77
  %20 = load i32, ptr %8, align 4, !tbaa !77
  %21 = and i32 %20, -2
  %22 = load ptr, ptr %5, align 8, !tbaa !4
  %23 = getelementptr inbounds nuw %struct.H264Context, ptr %22, i32 0, i32 64
  %24 = load i32, ptr %23, align 4, !tbaa !92
  %25 = mul nsw i32 %21, %24
  %26 = add nsw i32 %19, %25
  store i32 %26, ptr %12, align 4, !tbaa !77
  %27 = load i32, ptr %12, align 4, !tbaa !77
  %28 = sub nsw i32 %27, 1
  store i32 %28, ptr %9, align 4, !tbaa !77
  %29 = load i32, ptr %8, align 4, !tbaa !77
  %30 = and i32 %29, 1
  %31 = icmp ne i32 %30, 0
  br i1 %31, label %32, label %69

32:                                               ; preds = %18
  %33 = load ptr, ptr %5, align 8, !tbaa !4
  %34 = getelementptr inbounds nuw %struct.H264Context, ptr %33, i32 0, i32 39
  %35 = load ptr, ptr %34, align 8, !tbaa !115
  %36 = load i32, ptr %9, align 4, !tbaa !77
  %37 = sext i32 %36 to i64
  %38 = getelementptr inbounds i16, ptr %35, i64 %37
  %39 = load i16, ptr %38, align 2, !tbaa !101
  %40 = zext i16 %39 to i32
  %41 = load ptr, ptr %6, align 8, !tbaa !9
  %42 = getelementptr inbounds nuw %struct.H264SliceContext, ptr %41, i32 0, i32 3
  %43 = load i32, ptr %42, align 16, !tbaa !114
  %44 = icmp eq i32 %40, %43
  br i1 %44, label %45, label %69

45:                                               ; preds = %32
  %46 = load ptr, ptr %6, align 8, !tbaa !9
  %47 = getelementptr inbounds nuw %struct.H264SliceContext, ptr %46, i32 0, i32 49
  %48 = load i32, ptr %47, align 16, !tbaa !98
  %49 = load ptr, ptr %5, align 8, !tbaa !4
  %50 = getelementptr inbounds nuw %struct.H264Context, ptr %49, i32 0, i32 9
  %51 = getelementptr inbounds nuw %struct.H264Picture, ptr %50, i32 0, i32 8
  %52 = load ptr, ptr %51, align 8, !tbaa !97
  %53 = load i32, ptr %9, align 4, !tbaa !77
  %54 = sext i32 %53 to i64
  %55 = getelementptr inbounds i32, ptr %52, i64 %54
  %56 = load i32, ptr %55, align 4, !tbaa !77
  %57 = and i32 %56, 128
  %58 = icmp ne i32 %57, 0
  %59 = xor i1 %58, true
  %60 = xor i1 %59, true
  %61 = zext i1 %60 to i32
  %62 = icmp eq i32 %48, %61
  br i1 %62, label %63, label %69

63:                                               ; preds = %45
  %64 = load ptr, ptr %5, align 8, !tbaa !4
  %65 = getelementptr inbounds nuw %struct.H264Context, ptr %64, i32 0, i32 64
  %66 = load i32, ptr %65, align 4, !tbaa !92
  %67 = load i32, ptr %9, align 4, !tbaa !77
  %68 = add nsw i32 %67, %66
  store i32 %68, ptr %9, align 4, !tbaa !77
  br label %69

69:                                               ; preds = %63, %45, %32, %18
  %70 = load ptr, ptr %6, align 8, !tbaa !9
  %71 = getelementptr inbounds nuw %struct.H264SliceContext, ptr %70, i32 0, i32 49
  %72 = load i32, ptr %71, align 16, !tbaa !98
  %73 = icmp ne i32 %72, 0
  br i1 %73, label %74, label %114

74:                                               ; preds = %69
  %75 = load i32, ptr %12, align 4, !tbaa !77
  %76 = load ptr, ptr %5, align 8, !tbaa !4
  %77 = getelementptr inbounds nuw %struct.H264Context, ptr %76, i32 0, i32 64
  %78 = load i32, ptr %77, align 4, !tbaa !92
  %79 = sub nsw i32 %75, %78
  store i32 %79, ptr %10, align 4, !tbaa !77
  %80 = load i32, ptr %8, align 4, !tbaa !77
  %81 = and i32 %80, 1
  %82 = icmp ne i32 %81, 0
  br i1 %82, label %113, label %83

83:                                               ; preds = %74
  %84 = load ptr, ptr %5, align 8, !tbaa !4
  %85 = getelementptr inbounds nuw %struct.H264Context, ptr %84, i32 0, i32 39
  %86 = load ptr, ptr %85, align 8, !tbaa !115
  %87 = load i32, ptr %10, align 4, !tbaa !77
  %88 = sext i32 %87 to i64
  %89 = getelementptr inbounds i16, ptr %86, i64 %88
  %90 = load i16, ptr %89, align 2, !tbaa !101
  %91 = zext i16 %90 to i32
  %92 = load ptr, ptr %6, align 8, !tbaa !9
  %93 = getelementptr inbounds nuw %struct.H264SliceContext, ptr %92, i32 0, i32 3
  %94 = load i32, ptr %93, align 16, !tbaa !114
  %95 = icmp eq i32 %91, %94
  br i1 %95, label %96, label %113

96:                                               ; preds = %83
  %97 = load ptr, ptr %5, align 8, !tbaa !4
  %98 = getelementptr inbounds nuw %struct.H264Context, ptr %97, i32 0, i32 9
  %99 = getelementptr inbounds nuw %struct.H264Picture, ptr %98, i32 0, i32 8
  %100 = load ptr, ptr %99, align 8, !tbaa !97
  %101 = load i32, ptr %10, align 4, !tbaa !77
  %102 = sext i32 %101 to i64
  %103 = getelementptr inbounds i32, ptr %100, i64 %102
  %104 = load i32, ptr %103, align 4, !tbaa !77
  %105 = and i32 %104, 128
  %106 = icmp ne i32 %105, 0
  br i1 %106, label %107, label %113

107:                                              ; preds = %96
  %108 = load ptr, ptr %5, align 8, !tbaa !4
  %109 = getelementptr inbounds nuw %struct.H264Context, ptr %108, i32 0, i32 64
  %110 = load i32, ptr %109, align 4, !tbaa !92
  %111 = load i32, ptr %10, align 4, !tbaa !77
  %112 = sub nsw i32 %111, %110
  store i32 %112, ptr %10, align 4, !tbaa !77
  br label %113

113:                                              ; preds = %107, %96, %83, %74
  br label %123

114:                                              ; preds = %69
  %115 = load i32, ptr %7, align 4, !tbaa !77
  %116 = load i32, ptr %8, align 4, !tbaa !77
  %117 = sub nsw i32 %116, 1
  %118 = load ptr, ptr %5, align 8, !tbaa !4
  %119 = getelementptr inbounds nuw %struct.H264Context, ptr %118, i32 0, i32 64
  %120 = load i32, ptr %119, align 4, !tbaa !92
  %121 = mul nsw i32 %117, %120
  %122 = add nsw i32 %115, %121
  store i32 %122, ptr %10, align 4, !tbaa !77
  br label %123

123:                                              ; preds = %114, %113
  call void @llvm.lifetime.end.p0(i64 4, ptr %12) #9
  br label %141

124:                                              ; preds = %4
  call void @llvm.lifetime.start.p0(i64 4, ptr %13) #9
  %125 = load ptr, ptr %6, align 8, !tbaa !9
  %126 = getelementptr inbounds nuw %struct.H264SliceContext, ptr %125, i32 0, i32 41
  %127 = load i32, ptr %126, align 16, !tbaa !93
  store i32 %127, ptr %13, align 4, !tbaa !77
  %128 = load i32, ptr %13, align 4, !tbaa !77
  %129 = sub nsw i32 %128, 1
  store i32 %129, ptr %9, align 4, !tbaa !77
  %130 = load i32, ptr %13, align 4, !tbaa !77
  %131 = load ptr, ptr %5, align 8, !tbaa !4
  %132 = getelementptr inbounds nuw %struct.H264Context, ptr %131, i32 0, i32 64
  %133 = load i32, ptr %132, align 4, !tbaa !92
  %134 = load ptr, ptr %5, align 8, !tbaa !4
  %135 = getelementptr inbounds nuw %struct.H264Context, ptr %134, i32 0, i32 41
  %136 = load i32, ptr %135, align 4, !tbaa !163
  %137 = icmp ne i32 %136, 3
  %138 = zext i1 %137 to i32
  %139 = shl i32 %133, %138
  %140 = sub nsw i32 %130, %139
  store i32 %140, ptr %10, align 4, !tbaa !77
  call void @llvm.lifetime.end.p0(i64 4, ptr %13) #9
  br label %141

141:                                              ; preds = %124, %123
  %142 = load ptr, ptr %5, align 8, !tbaa !4
  %143 = getelementptr inbounds nuw %struct.H264Context, ptr %142, i32 0, i32 39
  %144 = load ptr, ptr %143, align 8, !tbaa !115
  %145 = load i32, ptr %9, align 4, !tbaa !77
  %146 = sext i32 %145 to i64
  %147 = getelementptr inbounds i16, ptr %144, i64 %146
  %148 = load i16, ptr %147, align 2, !tbaa !101
  %149 = zext i16 %148 to i32
  %150 = load ptr, ptr %6, align 8, !tbaa !9
  %151 = getelementptr inbounds nuw %struct.H264SliceContext, ptr %150, i32 0, i32 3
  %152 = load i32, ptr %151, align 16, !tbaa !114
  %153 = icmp eq i32 %149, %152
  br i1 %153, label %154, label %168

154:                                              ; preds = %141
  %155 = load ptr, ptr %5, align 8, !tbaa !4
  %156 = getelementptr inbounds nuw %struct.H264Context, ptr %155, i32 0, i32 9
  %157 = getelementptr inbounds nuw %struct.H264Picture, ptr %156, i32 0, i32 8
  %158 = load ptr, ptr %157, align 8, !tbaa !97
  %159 = load i32, ptr %9, align 4, !tbaa !77
  %160 = sext i32 %159 to i64
  %161 = getelementptr inbounds i32, ptr %158, i64 %160
  %162 = load i32, ptr %161, align 4, !tbaa !77
  %163 = and i32 %162, 131072
  %164 = icmp ne i32 %163, 0
  br i1 %164, label %168, label %165

165:                                              ; preds = %154
  %166 = load i32, ptr %11, align 4, !tbaa !77
  %167 = add nsw i32 %166, 1
  store i32 %167, ptr %11, align 4, !tbaa !77
  br label %168

168:                                              ; preds = %165, %154, %141
  %169 = load ptr, ptr %5, align 8, !tbaa !4
  %170 = getelementptr inbounds nuw %struct.H264Context, ptr %169, i32 0, i32 39
  %171 = load ptr, ptr %170, align 8, !tbaa !115
  %172 = load i32, ptr %10, align 4, !tbaa !77
  %173 = sext i32 %172 to i64
  %174 = getelementptr inbounds i16, ptr %171, i64 %173
  %175 = load i16, ptr %174, align 2, !tbaa !101
  %176 = zext i16 %175 to i32
  %177 = load ptr, ptr %6, align 8, !tbaa !9
  %178 = getelementptr inbounds nuw %struct.H264SliceContext, ptr %177, i32 0, i32 3
  %179 = load i32, ptr %178, align 16, !tbaa !114
  %180 = icmp eq i32 %176, %179
  br i1 %180, label %181, label %195

181:                                              ; preds = %168
  %182 = load ptr, ptr %5, align 8, !tbaa !4
  %183 = getelementptr inbounds nuw %struct.H264Context, ptr %182, i32 0, i32 9
  %184 = getelementptr inbounds nuw %struct.H264Picture, ptr %183, i32 0, i32 8
  %185 = load ptr, ptr %184, align 8, !tbaa !97
  %186 = load i32, ptr %10, align 4, !tbaa !77
  %187 = sext i32 %186 to i64
  %188 = getelementptr inbounds i32, ptr %185, i64 %187
  %189 = load i32, ptr %188, align 4, !tbaa !77
  %190 = and i32 %189, 131072
  %191 = icmp ne i32 %190, 0
  br i1 %191, label %195, label %192

192:                                              ; preds = %181
  %193 = load i32, ptr %11, align 4, !tbaa !77
  %194 = add nsw i32 %193, 1
  store i32 %194, ptr %11, align 4, !tbaa !77
  br label %195

195:                                              ; preds = %192, %181, %168
  %196 = load ptr, ptr %6, align 8, !tbaa !9
  %197 = getelementptr inbounds nuw %struct.H264SliceContext, ptr %196, i32 0, i32 5
  %198 = load i32, ptr %197, align 8, !tbaa !78
  %199 = icmp eq i32 %198, 3
  br i1 %199, label %200, label %203

200:                                              ; preds = %195
  %201 = load i32, ptr %11, align 4, !tbaa !77
  %202 = add nsw i32 %201, 13
  store i32 %202, ptr %11, align 4, !tbaa !77
  br label %203

203:                                              ; preds = %200, %195
  %204 = load ptr, ptr %6, align 8, !tbaa !9
  %205 = getelementptr inbounds nuw %struct.H264SliceContext, ptr %204, i32 0, i32 87
  %206 = load ptr, ptr %6, align 8, !tbaa !9
  %207 = getelementptr inbounds nuw %struct.H264SliceContext, ptr %206, i32 0, i32 88
  %208 = load i32, ptr %11, align 4, !tbaa !77
  %209 = add nsw i32 11, %208
  %210 = sext i32 %209 to i64
  %211 = getelementptr inbounds [1024 x i8], ptr %207, i64 0, i64 %210
  %212 = call i32 @get_cabac_noinline(ptr noundef %205, ptr noundef %211)
  call void @llvm.lifetime.end.p0(i64 4, ptr %11) #9
  call void @llvm.lifetime.end.p0(i64 4, ptr %10) #9
  call void @llvm.lifetime.end.p0(i64 4, ptr %9) #9
  ret i32 %212
}