; Function Attrs: mustprogress nofree norecurse nosync nounwind willreturn memory(read, argmem: readwrite, inaccessiblemem: none) uwtable
define internal fastcc range(i32 0, 2) i32 @decode_cabac_mb_skip(ptr noundef readonly captures(none) %0, ptr noundef captures(none) %1, i32 noundef %2, i32 noundef %3) unnamed_addr #3 {
  %5 = getelementptr inbounds nuw i8, ptr %0, i64 731768
  %6 = load i32, ptr %5, align 8, !tbaa !89
  %.not = icmp eq i32 %6, 0
  br i1 %.not, label %60, label %7

7:                                                ; preds = %4
  %8 = and i32 %3, -2
  %9 = getelementptr inbounds nuw i8, ptr %0, i64 732436
  %10 = load i32, ptr %9, align 4, !tbaa !87
  %11 = mul nsw i32 %10, %8
  %12 = add nsw i32 %11, %2
  %13 = add nsw i32 %12, -1
  %14 = and i32 %3, 1
  %.not53 = icmp eq i32 %14, 0
  br i1 %.not53, label %.thread, label %15

15:                                               ; preds = %7
  %16 = getelementptr inbounds nuw i8, ptr %0, i64 731760
  %17 = load ptr, ptr %16, align 8, !tbaa !95
  %18 = sext i32 %13 to i64
  %19 = getelementptr inbounds i16, ptr %17, i64 %18
  %20 = load i16, ptr %19, align 2, !tbaa !96
  %21 = zext i16 %20 to i32
  %22 = getelementptr inbounds nuw i8, ptr %1, i64 48
  %23 = load i32, ptr %22, align 16, !tbaa !97
  %24 = icmp eq i32 %23, %21
  %25 = getelementptr inbounds nuw i8, ptr %1, i64 21072
  %26 = load i32, ptr %25, align 16, !tbaa !94
  br i1 %24, label %27, label %._crit_edge

27:                                               ; preds = %15
  %28 = getelementptr inbounds nuw i8, ptr %0, i64 729312
  %29 = load ptr, ptr %28, align 8, !tbaa !92
  %30 = getelementptr inbounds i32, ptr %29, i64 %18
  %31 = load i32, ptr %30, align 4, !tbaa !93
  %32 = lshr i32 %31, 7
  %.lobit = and i32 %32, 1
  %33 = icmp eq i32 %26, %.lobit
  %34 = select i1 %33, i32 %10, i32 0
  %spec.select = add nsw i32 %34, %13
  br label %._crit_edge

._crit_edge:                                      ; preds = %15, %27
  %.0 = phi i32 [ %spec.select, %27 ], [ %13, %15 ]
  %.not54 = icmp eq i32 %26, 0
  br i1 %.not54, label %56, label %47

.thread:                                          ; preds = %7
  %35 = getelementptr inbounds nuw i8, ptr %1, i64 21072
  %36 = load i32, ptr %35, align 16, !tbaa !94
  %.not5463 = icmp eq i32 %36, 0
  br i1 %.not5463, label %56, label %.thread66

.thread66:                                        ; preds = %.thread
  %37 = sub nsw i32 %12, %10
  %38 = getelementptr inbounds nuw i8, ptr %0, i64 731760
  %39 = load ptr, ptr %38, align 8, !tbaa !95
  %40 = sext i32 %37 to i64
  %41 = getelementptr inbounds i16, ptr %39, i64 %40
  %42 = load i16, ptr %41, align 2, !tbaa !96
  %43 = zext i16 %42 to i32
  %44 = getelementptr inbounds nuw i8, ptr %1, i64 48
  %45 = load i32, ptr %44, align 16, !tbaa !97
  %46 = icmp eq i32 %45, %43
  br i1 %46, label %49, label %72

47:                                               ; preds = %._crit_edge
  %48 = sub nsw i32 %12, %10
  br label %72

49:                                               ; preds = %.thread66
  %50 = getelementptr inbounds nuw i8, ptr %0, i64 729312
  %51 = load ptr, ptr %50, align 8, !tbaa !92
  %52 = getelementptr inbounds i32, ptr %51, i64 %40
  %53 = load i32, ptr %52, align 4, !tbaa !93
  %54 = and i32 %53, 128
  %.not55 = icmp eq i32 %54, 0
  %55 = select i1 %.not55, i32 0, i32 %10
  %spec.select58 = sub nsw i32 %37, %55
  br label %72

56:                                               ; preds = %.thread, %._crit_edge
  %.065 = phi i32 [ %13, %.thread ], [ %.0, %._crit_edge ]
  %57 = add nsw i32 %3, -1
  %58 = mul nsw i32 %10, %57
  %59 = add nsw i32 %58, %2
  br label %72

60:                                               ; preds = %4
  %61 = getelementptr inbounds nuw i8, ptr %1, i64 21040
  %62 = load i32, ptr %61, align 16, !tbaa !88
  %63 = add nsw i32 %62, -1
  %64 = getelementptr inbounds nuw i8, ptr %0, i64 732436
  %65 = load i32, ptr %64, align 4, !tbaa !87
  %66 = getelementptr inbounds nuw i8, ptr %0, i64 731772
  %67 = load i32, ptr %66, align 4, !tbaa !183
  %68 = icmp ne i32 %67, 3
  %69 = zext i1 %68 to i32
  %70 = shl i32 %65, %69
  %71 = sub nsw i32 %62, %70
  br label %72

72:                                               ; preds = %47, %49, %56, %.thread66, %60
  %.150 = phi i32 [ %71, %60 ], [ %48, %47 ], [ %37, %.thread66 ], [ %59, %56 ], [ %spec.select58, %49 ]
  %.1 = phi i32 [ %63, %60 ], [ %.0, %47 ], [ %13, %.thread66 ], [ %.065, %56 ], [ %13, %49 ]
  %73 = getelementptr inbounds nuw i8, ptr %0, i64 731760
  %74 = load ptr, ptr %73, align 8, !tbaa !95
  %75 = sext i32 %.1 to i64
  %76 = getelementptr inbounds i16, ptr %74, i64 %75
  %77 = load i16, ptr %76, align 2, !tbaa !96
  %78 = zext i16 %77 to i32
  %79 = getelementptr inbounds nuw i8, ptr %1, i64 48
  %80 = load i32, ptr %79, align 16, !tbaa !97
  %81 = icmp eq i32 %80, %78
  br i1 %81, label %82, label %88

82:                                               ; preds = %72
  %83 = getelementptr inbounds nuw i8, ptr %0, i64 729312
  %84 = load ptr, ptr %83, align 8, !tbaa !92
  %85 = getelementptr inbounds i32, ptr %84, i64 %75
  %86 = load i32, ptr %85, align 4, !tbaa !93
  %87 = lshr i32 %86, 17
  %.lobit69 = and i32 %87, 1
  %spec.select59 = xor i32 %.lobit69, 1
  br label %88

88:                                               ; preds = %82, %72
  %.051 = phi i32 [ 0, %72 ], [ %spec.select59, %82 ]
  %89 = sext i32 %.150 to i64
  %90 = getelementptr inbounds i16, ptr %74, i64 %89
  %91 = load i16, ptr %90, align 2, !tbaa !96
  %92 = zext i16 %91 to i32
  %93 = icmp eq i32 %80, %92
  br i1 %93, label %94, label %102

94:                                               ; preds = %88
  %95 = getelementptr inbounds nuw i8, ptr %0, i64 729312
  %96 = load ptr, ptr %95, align 8, !tbaa !92
  %97 = getelementptr inbounds i32, ptr %96, i64 %89
  %98 = load i32, ptr %97, align 4, !tbaa !93
  %99 = lshr i32 %98, 17
  %100 = and i32 %99, 1
  %101 = xor i32 %100, 1
  %spec.select60 = add nuw nsw i32 %101, %.051
  br label %102

102:                                              ; preds = %94, %88
  %.152 = phi i32 [ %.051, %88 ], [ %spec.select60, %94 ]
  %103 = getelementptr inbounds nuw i8, ptr %1, i64 56
  %104 = load i32, ptr %103, align 8, !tbaa !75
  %105 = icmp eq i32 %104, 3
  %106 = add nuw nsw i32 %.152, 13
  %spec.select61 = select i1 %105, i32 %106, i32 %.152
  %107 = getelementptr inbounds nuw i8, ptr %1, i64 33664
  %108 = getelementptr inbounds nuw i8, ptr %1, i64 33696
  %109 = add nuw nsw i32 %spec.select61, 11
  %110 = zext nneg i32 %109 to i64
  %111 = getelementptr inbounds nuw [1024 x i8], ptr %108, i64 0, i64 %110
  %112 = tail call fastcc i32 @get_cabac_noinline(ptr noundef nonnull %107, ptr noundef nonnull %111)
  ret i32 %112
}